target datalayout = "e-m:e-p270:32:32-p271:32:32-p272:64:64-i64:64-i128:128-f80:128-n8:16:32:64-S128"
target triple = "x86_64-pc-linux-gnu"

%class.ErrorHandler = type <{ i32, i32, i8, i8, i8, i8, i8, i8, [2 x i8] }>

@ErrHandler = external global %class.ErrorHandler, align 4

; Function Attrs: mustprogress uwtable
define noundef zeroext i1 @_ZN4File5WOpenEPKw(ptr noundef nonnull align 8 dereferenceable(8256) %0, ptr noundef %1) #1 align 2 {
  %3 = alloca i1, align 1
  %4 = alloca ptr, align 8
  %5 = alloca ptr, align 8
  store ptr %0, ptr %4, align 8
  store ptr %1, ptr %5, align 8
  %6 = load ptr, ptr %4, align 8
  %7 = load ptr, ptr %5, align 8
  %8 = load ptr, ptr %6, align 8
  %9 = getelementptr inbounds ptr, ptr %8, i64 2
  %10 = load ptr, ptr %9, align 8
  %11 = call noundef zeroext i1 %10(ptr noundef nonnull align 8 dereferenceable(8256) %6, ptr noundef %7, i32 noundef 0)
  br i1 %11, label %12, label %13

12:                                               ; preds = %2
  store i1 true, ptr %3, align 1
  br label %15

13:                                               ; preds = %2
  %14 = load ptr, ptr %5, align 8
  call void @_ZN12ErrorHandler12OpenErrorMsgEPKw(ptr noundef nonnull align 4 dereferenceable(14) @ErrHandler, ptr noundef %14)
  store i1 false, ptr %3, align 1
  br label %15

15:                                               ; preds = %13, %12
  %16 = load i1, ptr %3, align 1
  ret i1 %16
}