; Function Attrs: mustprogress uwtable
define noundef zeroext i1 @_ZN4File5WOpenEPKw(ptr noundef nonnull align 8 dereferenceable(8256) %0, ptr noundef %1) local_unnamed_addr #2 align 2 {
  %3 = load ptr, ptr %0, align 8
  %4 = getelementptr inbounds i8, ptr %3, i64 16
  %5 = load ptr, ptr %4, align 8
  %6 = tail call noundef zeroext i1 %5(ptr noundef nonnull align 8 dereferenceable(8256) %0, ptr noundef %1, i32 noundef 0)
  br i1 %6, label %8, label %7

7:                                                ; preds = %2
  tail call void @_ZN12ErrorHandler12OpenErrorMsgEPKw(ptr noundef nonnull align 4 dereferenceable(14) @ErrHandler, ptr noundef %1)
  br label %8

8:                                                ; preds = %2, %7
  ret i1 %6
}